target datalayout = "e-m:e-p270:32:32-p271:32:32-p272:64:64-i64:64-i128:128-f80:128-n8:16:32:64-S128"
target triple = "x86_64-pc-linux-gnu"

%struct.JNINativeInterface_ = type { ptr, ptr, ptr, ptr, ptr, ptr, ptr, ptr, ptr, ptr, ptr, ptr, ptr, ptr, ptr, ptr, ptr, ptr, ptr, ptr, ptr, ptr, ptr, ptr, ptr, ptr, ptr, ptr, ptr, ptr, ptr, ptr, ptr, ptr, ptr, ptr, ptr, ptr, ptr, ptr, ptr, ptr, ptr, ptr, ptr, ptr, ptr, ptr, ptr, ptr, ptr, ptr, ptr, ptr, ptr, ptr, ptr, ptr, ptr, ptr, ptr, ptr, ptr, ptr, ptr, ptr, ptr, ptr, ptr, ptr, ptr, ptr, ptr, ptr, ptr, ptr, ptr, ptr, ptr, ptr, ptr, ptr, ptr, ptr, ptr, ptr, ptr, ptr, ptr, ptr, ptr, ptr, ptr, ptr, ptr, ptr, ptr, ptr, ptr, ptr, ptr, ptr, ptr, ptr, ptr, ptr, ptr, ptr, ptr, ptr, ptr, ptr, ptr, ptr, ptr, ptr, ptr, ptr, ptr, ptr, ptr, ptr, ptr, ptr, ptr, ptr, ptr, ptr, ptr, ptr, ptr, ptr, ptr, ptr, ptr, ptr, ptr, ptr, ptr, ptr, ptr, ptr, ptr, ptr, ptr, ptr, ptr, ptr, ptr, ptr, ptr, ptr, ptr, ptr, ptr, ptr, ptr, ptr, ptr, ptr, ptr, ptr, ptr, ptr, ptr, ptr, ptr, ptr, ptr, ptr, ptr, ptr, ptr, ptr, ptr, ptr, ptr, ptr, ptr, ptr, ptr, ptr, ptr, ptr, ptr, ptr, ptr, ptr, ptr, ptr, ptr, ptr, ptr, ptr, ptr, ptr, ptr, ptr, ptr, ptr, ptr, ptr, ptr, ptr, ptr, ptr, ptr, ptr, ptr, ptr, ptr, ptr, ptr, ptr, ptr, ptr, ptr, ptr, ptr, ptr, ptr, ptr, ptr, ptr, ptr, ptr, ptr, ptr, ptr, ptr, ptr, ptr, ptr, ptr, ptr }

@tkClass = hidden global ptr null, align 8
@awtLockMID = hidden global ptr null, align 8
@awtUnlockMID = hidden global ptr null, align 8
@awt_display = hidden global ptr null, align 8

; Function Attrs: nounwind uwtable
define void @Java_sun_awt_X11GraphicsDevice_enterFullScreenExclusive(ptr noundef %0, ptr noundef %1, i64 noundef %2) #0 {
  %4 = alloca ptr, align 8
  %5 = alloca ptr, align 8
  %6 = alloca i64, align 8
  %7 = alloca i64, align 8
  %8 = alloca ptr, align 8
  store ptr %0, ptr %4, align 8
  store ptr %1, ptr %5, align 8
  store i64 %2, ptr %6, align 8
  %9 = load i64, ptr %6, align 8
  store i64 %9, ptr %7, align 8
  br label %10

10:                                               ; preds = %3
  %11 = load ptr, ptr %4, align 8
  %12 = load ptr, ptr %11, align 8
  %13 = getelementptr inbounds %struct.JNINativeInterface_, ptr %12, i32 0, i32 228
  %14 = load ptr, ptr %13, align 8
  %15 = load ptr, ptr %4, align 8
  %16 = call zeroext i8 %14(ptr noundef %15)
  %17 = icmp ne i8 %16, 0
  br i1 %17, label %18, label %24

18:                                               ; preds = %10
  %19 = load ptr, ptr %4, align 8
  %20 = load ptr, ptr %19, align 8
  %21 = getelementptr inbounds %struct.JNINativeInterface_, ptr %20, i32 0, i32 17
  %22 = load ptr, ptr %21, align 8
  %23 = load ptr, ptr %4, align 8
  call void %22(ptr noundef %23)
  br label %24

24:                                               ; preds = %18, %10
  %25 = load ptr, ptr %4, align 8
  %26 = load ptr, ptr %25, align 8
  %27 = getelementptr inbounds %struct.JNINativeInterface_, ptr %26, i32 0, i32 141
  %28 = load ptr, ptr %27, align 8
  %29 = load ptr, ptr %4, align 8
  %30 = load ptr, ptr @tkClass, align 8
  %31 = load ptr, ptr @awtLockMID, align 8
  call void (ptr, ptr, ptr, ...) %28(ptr noundef %29, ptr noundef %30, ptr noundef %31)
  %32 = load ptr, ptr %4, align 8
  %33 = load ptr, ptr %32, align 8
  %34 = getelementptr inbounds %struct.JNINativeInterface_, ptr %33, i32 0, i32 228
  %35 = load ptr, ptr %34, align 8
  %36 = load ptr, ptr %4, align 8
  %37 = call zeroext i8 %35(ptr noundef %36)
  %38 = icmp ne i8 %37, 0
  br i1 %38, label %39, label %45

39:                                               ; preds = %24
  %40 = load ptr, ptr %4, align 8
  %41 = load ptr, ptr %40, align 8
  %42 = getelementptr inbounds %struct.JNINativeInterface_, ptr %41, i32 0, i32 17
  %43 = load ptr, ptr %42, align 8
  %44 = load ptr, ptr %4, align 8
  call void %43(ptr noundef %44)
  br label %45

45:                                               ; preds = %39, %24
  br label %46

46:                                               ; preds = %45
  %47 = load ptr, ptr @awt_display, align 8
  %48 = call i32 @XSync(ptr noundef %47, i32 noundef 0)
  %49 = load i64, ptr %7, align 8
  call void @X11GD_SetFullscreenMode(i64 noundef %49, i8 noundef zeroext 1)
  br label %50

50:                                               ; preds = %46
  call void (...) @awt_output_flush()
  br label %51

51:                                               ; preds = %50
  %52 = load ptr, ptr %4, align 8
  %53 = load ptr, ptr %52, align 8
  %54 = getelementptr inbounds %struct.JNINativeInterface_, ptr %53, i32 0, i32 15
  %55 = load ptr, ptr %54, align 8
  %56 = load ptr, ptr %4, align 8
  %57 = call ptr %55(ptr noundef %56)
  store ptr %57, ptr %8, align 8
  %58 = icmp ne ptr %57, null
  br i1 %58, label %59, label %65

59:                                               ; preds = %51
  %60 = load ptr, ptr %4, align 8
  %61 = load ptr, ptr %60, align 8
  %62 = getelementptr inbounds %struct.JNINativeInterface_, ptr %61, i32 0, i32 17
  %63 = load ptr, ptr %62, align 8
  %64 = load ptr, ptr %4, align 8
  call void %63(ptr noundef %64)
  br label %65

65:                                               ; preds = %59, %51
  %66 = load ptr, ptr %4, align 8
  %67 = load ptr, ptr %66, align 8
  %68 = getelementptr inbounds %struct.JNINativeInterface_, ptr %67, i32 0, i32 141
  %69 = load ptr, ptr %68, align 8
  %70 = load ptr, ptr %4, align 8
  %71 = load ptr, ptr @tkClass, align 8
  %72 = load ptr, ptr @awtUnlockMID, align 8
  call void (ptr, ptr, ptr, ...) %69(ptr noundef %70, ptr noundef %71, ptr noundef %72)
  %73 = load ptr, ptr %4, align 8
  %74 = load ptr, ptr %73, align 8
  %75 = getelementptr inbounds %struct.JNINativeInterface_, ptr %74, i32 0, i32 228
  %76 = load ptr, ptr %75, align 8
  %77 = load ptr, ptr %4, align 8
  %78 = call zeroext i8 %76(ptr noundef %77)
  %79 = icmp ne i8 %78, 0
  br i1 %79, label %80, label %86

80:                                               ; preds = %65
  %81 = load ptr, ptr %4, align 8
  %82 = load ptr, ptr %81, align 8
  %83 = getelementptr inbounds %struct.JNINativeInterface_, ptr %82, i32 0, i32 17
  %84 = load ptr, ptr %83, align 8
  %85 = load ptr, ptr %4, align 8
  call void %84(ptr noundef %85)
  br label %86

86:                                               ; preds = %80, %65
  %87 = load ptr, ptr %8, align 8
  %88 = icmp ne ptr %87, null
  br i1 %88, label %89, label %97

89:                                               ; preds = %86
  %90 = load ptr, ptr %4, align 8
  %91 = load ptr, ptr %90, align 8
  %92 = getelementptr inbounds %struct.JNINativeInterface_, ptr %91, i32 0, i32 13
  %93 = load ptr, ptr %92, align 8
  %94 = load ptr, ptr %4, align 8
  %95 = load ptr, ptr %8, align 8
  %96 = call i32 %93(ptr noundef %94, ptr noundef %95)
  br label %97

97:                                               ; preds = %89, %86
  br label %98

98:                                               ; preds = %97
  br label %99

99:                                               ; preds = %98
  ret void
}