; Function Attrs: nounwind uwtable
define void @Java_sun_awt_X11GraphicsDevice_enterFullScreenExclusive(ptr noundef %0, ptr nocapture noundef readnone %1, i64 noundef %2) local_unnamed_addr #0 {
  %4 = load ptr, ptr %0, align 8
  %5 = getelementptr inbounds i8, ptr %4, i64 1824
  %6 = load ptr, ptr %5, align 8
  %7 = tail call zeroext i8 %6(ptr noundef nonnull %0) #17
  %.not = icmp eq i8 %7, 0
  br i1 %.not, label %12, label %8

8:                                                ; preds = %3
  %9 = load ptr, ptr %0, align 8
  %10 = getelementptr inbounds i8, ptr %9, i64 136
  %11 = load ptr, ptr %10, align 8
  tail call void %11(ptr noundef nonnull %0) #17
  br label %12

12:                                               ; preds = %8, %3
  %13 = load ptr, ptr %0, align 8
  %14 = getelementptr inbounds i8, ptr %13, i64 1128
  %15 = load ptr, ptr %14, align 8
  %16 = load ptr, ptr @tkClass, align 8
  %17 = load ptr, ptr @awtLockMID, align 8
  tail call void (ptr, ptr, ptr, ...) %15(ptr noundef nonnull %0, ptr noundef %16, ptr noundef %17) #17
  %18 = load ptr, ptr %0, align 8
  %19 = getelementptr inbounds i8, ptr %18, i64 1824
  %20 = load ptr, ptr %19, align 8
  %21 = tail call zeroext i8 %20(ptr noundef nonnull %0) #17
  %.not25 = icmp eq i8 %21, 0
  br i1 %.not25, label %26, label %22

22:                                               ; preds = %12
  %23 = load ptr, ptr %0, align 8
  %24 = getelementptr inbounds i8, ptr %23, i64 136
  %25 = load ptr, ptr %24, align 8
  tail call void %25(ptr noundef nonnull %0) #17
  br label %26

26:                                               ; preds = %12, %22
  %27 = load ptr, ptr @awt_display, align 8
  %28 = tail call i32 @XSync(ptr noundef %27, i32 noundef 0) #17
  tail call fastcc void @X11GD_SetFullscreenMode(i64 noundef %2, i8 noundef zeroext 1)
  tail call void (...) @awt_output_flush() #17
  %29 = load ptr, ptr %0, align 8
  %30 = getelementptr inbounds i8, ptr %29, i64 120
  %31 = load ptr, ptr %30, align 8
  %32 = tail call ptr %31(ptr noundef nonnull %0) #17
  %.not26 = icmp eq ptr %32, null
  br i1 %.not26, label %37, label %33

33:                                               ; preds = %26
  %34 = load ptr, ptr %0, align 8
  %35 = getelementptr inbounds i8, ptr %34, i64 136
  %36 = load ptr, ptr %35, align 8
  tail call void %36(ptr noundef nonnull %0) #17
  br label %37

37:                                               ; preds = %33, %26
  %38 = load ptr, ptr %0, align 8
  %39 = getelementptr inbounds i8, ptr %38, i64 1128
  %40 = load ptr, ptr %39, align 8
  %41 = load ptr, ptr @tkClass, align 8
  %42 = load ptr, ptr @awtUnlockMID, align 8
  tail call void (ptr, ptr, ptr, ...) %40(ptr noundef nonnull %0, ptr noundef %41, ptr noundef %42) #17
  %43 = load ptr, ptr %0, align 8
  %44 = getelementptr inbounds i8, ptr %43, i64 1824
  %45 = load ptr, ptr %44, align 8
  %46 = tail call zeroext i8 %45(ptr noundef nonnull %0) #17
  %.not27 = icmp eq i8 %46, 0
  br i1 %.not27, label %51, label %47

47:                                               ; preds = %37
  %48 = load ptr, ptr %0, align 8
  %49 = getelementptr inbounds i8, ptr %48, i64 136
  %50 = load ptr, ptr %49, align 8
  tail call void %50(ptr noundef nonnull %0) #17
  br label %51

51:                                               ; preds = %47, %37
  br i1 %.not26, label %57, label %52

52:                                               ; preds = %51
  %53 = load ptr, ptr %0, align 8
  %54 = getelementptr inbounds i8, ptr %53, i64 104
  %55 = load ptr, ptr %54, align 8
  %56 = tail call i32 %55(ptr noundef nonnull %0, ptr noundef nonnull %32) #17
  br label %57

57:                                               ; preds = %52, %51
  ret void
}